Certificate:
    Data:
        Version: 3 (0x2)
        Serial Number: 4886985935877942588 (0x43d20fd0fa55ad3c)
    Signature Algorithm: sha256WithRSAEncryption
        Issuer: C=FR, L=Noisy-le-Grand, O=IIC Paris, OU=IIC Paris Certificate Authority, CN=IIC Paris Root CA/emailAddress=iic_paris@fr.ibm.com
        Validity
            Not Before: Aug 21 16:22:07 2020 GMT
            Not After : Aug 19 16:22:07 2030 GMT
        Subject: C=FR, L=Noisy-le-Grand, O=IIC Paris, OU=IIC Paris Certificate Authority, CN=IIC Paris Intermediate CA/emailAddress=iic_paris@fr.ibm.com
        Subject Public Key Info:
            Public Key Algorithm: rsaEncryption
                Public-Key: (2048 bit)
                Modulus:
                    00:b0:26:18:86:b6:7e:7b:b8:b1:f5:14:3a:e8:bf:
                    48:e7:b7:c6:a1:81:74:49:f3:6d:1e:27:7e:25:ef:
                    14:f9:55:96:e1:c9:05:68:f5:cb:88:16:2f:7d:c0:
                    5f:40:24:3e:ef:17:78:d5:26:7e:32:e4:1c:7a:80:
                    fe:6a:98:10:4f:55:6d:89:76:0a:d0:58:15:ad:e7:
                    18:cc:ca:1c:f8:4d:96:9c:68:2c:53:ca:3b:b4:99:
                    b8:96:76:c4:fb:b3:71:2d:4c:9b:5b:6e:2f:b0:f9:
                    ba:6a:0b:8e:aa:fd:e3:88:57:13:1b:35:c4:a0:65:
                    b3:af:62:ff:ab:67:7f:70:a9:67:86:1d:25:c3:08:
                    b5:17:29:f7:3e:14:6a:3b:92:79:1d:91:f6:ca:fa:
                    5a:5c:c6:5e:0c:4e:b9:08:be:23:c9:99:ce:cc:25:
                    0c:e1:31:e2:c5:f2:db:13:47:16:42:6b:f6:4e:06:
                    d7:80:fc:87:52:1c:27:ed:66:71:a6:8c:4c:07:38:
                    59:d6:d8:76:67:12:7d:00:d0:4b:7a:d8:aa:8f:00:
                    0c:f4:86:0c:05:a0:2c:a0:27:50:d0:d8:5f:f8:4b:
                    34:af:e2:1d:7b:37:59:16:b9:e1:be:74:18:02:32:
                    69:8b:77:cb:a9:8f:99:fa:c9:d2:6e:a3:55:80:c5:
                    ea:8f
                Exponent: 65537 (0x10001)
        X509v3 extensions:
            X509v3 Subject Key Identifier: 
                AD:0E:7F:70:59:BD:5B:C3:5A:9F:DA:42:9C:28:BB:D3:2F:87:49:07
            X509v3 Authority Key Identifier: 
                keyid:F6:01:32:E1:CE:45:B4:A6:B1:30:68:01:32:84:21:6A:66:A9:66:CC

            X509v3 Basic Constraints: 
                CA:TRUE
    Signature Algorithm: sha256WithRSAEncryption
         ac:0a:87:31:7d:b6:74:87:6e:b9:ff:79:16:de:ce:1d:37:9f:
         3b:dc:33:f6:2e:43:fe:ba:88:0d:e4:37:67:9f:4a:4c:ef:a6:
         c3:c5:2d:a2:a3:83:58:3c:1a:5b:84:3d:fd:d3:7e:74:a3:c1:
         c7:ce:53:68:b2:25:f0:11:5f:23:ec:fd:7e:73:d6:72:fb:b9:
         f4:2c:f5:f4:47:ae:e9:73:c7:74:13:5f:44:a4:38:c8:75:59:
         cc:6f:97:91:e7:a1:2a:fb:40:f1:f0:36:31:67:85:d1:91:61:
         b2:38:2a:cb:e5:5e:05:85:43:76:1c:de:0b:57:ba:cf:df:5e:
         e5:d3:69:a7:fc:2d:5a:d8:18:9e:45:d1:c1:34:0a:41:4e:e2:
         60:6b:e7:23:38:30:84:d3:44:04:56:bf:eb:26:42:46:ca:29:
         c9:b8:60:f9:08:22:e1:fa:79:fe:ae:a7:48:3e:8f:cc:f9:15:
         7d:80:fa:74:ab:6c:5e:d0:6d:c4:22:d4:fc:70:11:d3:fa:65:
         4b:8d:d8:92:5f:43:4e:92:50:6f:68:2c:4c:56:1c:d7:74:f3:
         bd:1a:e1:d7:b5:0e:51:91:8a:a4:93:d6:67:9f:92:6d:f4:74:
         35:f1:bf:16:45:ea:07:38:1b:ad:2a:e6:97:ab:fb:4a:26:cb:
         34:a3:f5:b0
-----BEGIN CERTIFICATE-----
MIIEJjCCAw6gAwIBAgIIQ9IP0PpVrTwwDQYJKoZIhvcNAQELBQAwgaUxCzAJBgNV
BAYTAkZSMRcwFQYDVQQHDA5Ob2lzeS1sZS1HcmFuZDESMBAGA1UECgwJSUlDIFBh
cmlzMSgwJgYDVQQLDB9JSUMgUGFyaXMgQ2VydGlmaWNhdGUgQXV0aG9yaXR5MRow
GAYDVQQDDBFJSUMgUGFyaXMgUm9vdCBDQTEjMCEGCSqGSIb3DQEJARYUaWljX3Bh
cmlzQGZyLmlibS5jb20wHhcNMjAwODIxMTYyMjA3WhcNMzAwODE5MTYyMjA3WjCB
rTELMAkGA1UEBhMCRlIxFzAVBgNVBAcMDk5vaXN5LWxlLUdyYW5kMRIwEAYDVQQK
DAlJSUMgUGFyaXMxKDAmBgNVBAsMH0lJQyBQYXJpcyBDZXJ0aWZpY2F0ZSBBdXRo
b3JpdHkxIjAgBgNVBAMMGUlJQyBQYXJpcyBJbnRlcm1lZGlhdGUgQ0ExIzAhBgkq
hkiG9w0BCQEWFGlpY19wYXJpc0Bmci5pYm0uY29tMIIBIjANBgkqhkiG9w0BAQEF
AAOCAQ8AMIIBCgKCAQEAsCYYhrZ+e7ix9RQ66L9I57fGoYF0SfNtHid+Je8U+VWW
4ckFaPXLiBYvfcBfQCQ+7xd41SZ+MuQceoD+apgQT1VtiXYK0FgVrecYzMoc+E2W
nGgsU8o7tJm4lnbE+7NxLUybW24vsPm6aguOqv3jiFcTGzXEoGWzr2L/q2d/cKln
hh0lwwi1Fyn3PhRqO5J5HZH2yvpaXMZeDE65CL4jyZnOzCUM4THixfLbE0cWQmv2
TgbXgPyHUhwn7WZxpoxMBzhZ1th2ZxJ9ANBLetiqjwAM9IYMBaAsoCdQ0Nhf+Es0
r+IdezdZFrnhvnQYAjJpi3fLqY+Z+snSbqNVgMXqjwIDAQABo1AwTjAdBgNVHQ4E
FgQUrQ5/cFm9W8Nan9pCnCi70y+HSQcwHwYDVR0jBBgwFoAU9gEy4c5FtKaxMGgB
MoQhamapZswwDAYDVR0TBAUwAwEB/zANBgkqhkiG9w0BAQsFAAOCAQEArAqHMX22
dIduuf95Ft7OHTefO9wz9i5D/rqIDeQ3Z59KTO+mw8UtoqODWDwaW4Q9/dN+dKPB
x85TaLIl8BFfI+z9fnPWcvu59Cz19Eeu6XPHdBNfRKQ4yHVZzG+XkeehKvtA8fA2
MWeF0ZFhsjgqy+VeBYVDdhzeC1e6z99e5dNpp/wtWtgYnkXRwTQKQU7iYGvnIzgw
hNNEBFa/6yZCRsopybhg+Qgi4fp5/q6nSD6PzPkVfYD6dKtsXtBtxCLU/HAR0/pl
S43Ykl9DTpJQb2gsTFYc13TzvRrh17UOUZGKpJPWZ5+SbfR0NfG/FkXqBzgbrSrm
l6v7SibLNKP1sA==
-----END CERTIFICATE-----
-----BEGIN CERTIFICATE-----
MIIEHzCCAwegAwIBAgIJAMraOIWKMLGiMA0GCSqGSIb3DQEBCwUAMIGlMQswCQYD
VQQGEwJGUjEXMBUGA1UEBwwOTm9pc3ktbGUtR3JhbmQxEjAQBgNVBAoMCUlJQyBQ
YXJpczEoMCYGA1UECwwfSUlDIFBhcmlzIENlcnRpZmljYXRlIEF1dGhvcml0eTEa
MBgGA1UEAwwRSUlDIFBhcmlzIFJvb3QgQ0ExIzAhBgkqhkiG9w0BCQEWFGlpY19w
YXJpc0Bmci5pYm0uY29tMB4XDTIwMDgyMTE2MTYwNVoXDTQwMDgxNjE2MTYwNVow
gaUxCzAJBgNVBAYTAkZSMRcwFQYDVQQHDA5Ob2lzeS1sZS1HcmFuZDESMBAGA1UE
CgwJSUlDIFBhcmlzMSgwJgYDVQQLDB9JSUMgUGFyaXMgQ2VydGlmaWNhdGUgQXV0
aG9yaXR5MRowGAYDVQQDDBFJSUMgUGFyaXMgUm9vdCBDQTEjMCEGCSqGSIb3DQEJ
ARYUaWljX3BhcmlzQGZyLmlibS5jb20wggEiMA0GCSqGSIb3DQEBAQUAA4IBDwAw
ggEKAoIBAQCvPPXHep9gJx5h4igVpBQ52X76TbJWk8EFhsKRPKt99cM7pgTYBjgA
GOdhd2/dtHTyHK3/Yh2AdXUfDDmYexdF7WMmkwZc6wBvchOk70dlYP78QlKxQBY/
nX50UjYmVmIE/NE0cnZe39FcFRPgHRafvDoWthxax9NuW+gXaDVN2DcdAcZGPBmT
4DUrXRKWrdke+8FARDcguYFVQ+WQ1zaPxM+YRNVLknbFy6ZDrP7uIBHOGqN2wbuK
3Zjssl56dBVJvaNqIbGLQSBmeAH78wr8NGmZYAHeIUuMK0TiwTd6q8fpJI+xnl1p
zoHW67xQZqPYRGnsRPWgHTE1PsnLEiQjAgMBAAGjUDBOMB0GA1UdDgQWBBT2ATLh
zkW0prEwaAEyhCFqZqlmzDAfBgNVHSMEGDAWgBT2ATLhzkW0prEwaAEyhCFqZqlm
zDAMBgNVHRMEBTADAQH/MA0GCSqGSIb3DQEBCwUAA4IBAQAUQcHNOyYuH7xNg3OC
1BGE3Wx7/oR434WoNkw242txfX8YojgskIxU2Vr310vSx75tp7nFuh8XtFr9clbK
nmcIbyXd438XCxdHOI9eXnt4H0r2xw3B/r1rJ8SgUPjuubgxPdNA8ZKTia0ctWFP
ELJAYKuzMqMQ7V3EObYQLdLZ4e0YbQILGSxCPxmkRZRvzTBocT3utAKOQKkUIW+F
7bVH4dCUPI7lAEf5QTmnMPyYMczFi0JK7lCzZVRN/zpvYoounlgdiR7jPuTA6hIU
F7M9ONbRUX6aIbC78dHUA79sx8qHuHekeBUPOE94Ik7n6h8gq1NuqyllU6gpKtUz
z5Vd
-----END CERTIFICATE-----
